; Function Attrs: nofree nounwind uwtable
define void @Ivy_CutPrintForNodes(ptr noundef readonly captures(none) %0) local_unnamed_addr #7 {
  %2 = getelementptr inbounds nuw i8, ptr %0, i64 16
  %3 = getelementptr inbounds nuw i8, ptr %0, i64 24
  %4 = load i32, ptr %3, align 4, !tbaa !43
  %5 = tail call i32 (ptr, ...) @printf(ptr noundef nonnull dereferenceable(1) @.str.4, i32 noundef %4)
  %6 = load i32, ptr %0, align 4, !tbaa !38
  %7 = icmp sgt i32 %6, 0
  br i1 %7, label %.lr.ph, label %._crit_edge

.lr.ph:                                           ; preds = %1, %Ivy_CutPrintForNode.exit
  %indvars.iv = phi i64 [ %indvars.iv.next, %Ivy_CutPrintForNode.exit ], [ 0, %1 ]
  %8 = getelementptr inbounds nuw %struct.Ivy_Cut_t_, ptr %2, i64 %indvars.iv
  %9 = getelementptr inbounds nuw i8, ptr %8, i64 4
  %10 = load i16, ptr %9, align 4, !tbaa !40
  %11 = sext i16 %10 to i32
  %12 = tail call i32 (ptr, ...) @printf(ptr noundef nonnull dereferenceable(1) @.str.1, i32 noundef %11)
  %13 = load i16, ptr %9, align 4, !tbaa !40
  %14 = icmp sgt i16 %13, 0
  br i1 %14, label %.lr.ph.i, label %Ivy_CutPrintForNode.exit

.lr.ph.i:                                         ; preds = %.lr.ph
  %15 = getelementptr inbounds nuw i8, ptr %8, i64 8
  br label %16

16:                                               ; preds = %16, %.lr.ph.i
  %indvars.iv.i = phi i64 [ 0, %.lr.ph.i ], [ %indvars.iv.next.i, %16 ]
  %17 = getelementptr inbounds nuw [6 x i32], ptr %15, i64 0, i64 %indvars.iv.i
  %18 = load i32, ptr %17, align 4, !tbaa !43
  %19 = tail call i32 (ptr, ...) @printf(ptr noundef nonnull dereferenceable(1) @.str.2, i32 noundef %18)
  %indvars.iv.next.i = add nuw nsw i64 %indvars.iv.i, 1
  %20 = load i16, ptr %9, align 4, !tbaa !40
  %21 = sext i16 %20 to i64
  %22 = icmp slt i64 %indvars.iv.next.i, %21
  br i1 %22, label %16, label %Ivy_CutPrintForNode.exit, !llvm.loop !114

Ivy_CutPrintForNode.exit:                         ; preds = %16, %.lr.ph
  %puts.i = tail call i32 @puts(ptr nonnull dereferenceable(1) @str.1)
  %indvars.iv.next = add nuw nsw i64 %indvars.iv, 1
  %23 = load i32, ptr %0, align 4, !tbaa !38
  %24 = sext i32 %23 to i64
  %25 = icmp slt i64 %indvars.iv.next, %24
  br i1 %25, label %.lr.ph, label %._crit_edge, !llvm.loop !115

._crit_edge:                                      ; preds = %Ivy_CutPrintForNode.exit, %1
  ret void
}